; Function Attrs: nounwind uwtable
define ptr @l_Lean_Unhygienic_instMonadQuotation___lambda__2(ptr readnone captures(none) %0, ptr noundef %1, ptr noundef %2, ptr noundef %3, ptr noundef %4) #0 {
  %.val = load i32, ptr %3, align 4, !tbaa !4
  %6 = icmp eq i32 %.val, 1
  br i1 %6, label %7, label %19

7:                                                ; preds = %5
  %8 = getelementptr inbounds nuw i8, ptr %3, i64 8
  %9 = load ptr, ptr %8, align 8, !tbaa !9
  %10 = ptrtoint ptr %9 to i64
  %11 = and i64 %10, 1
  %.not26 = icmp eq i64 %11, 0
  br i1 %.not26, label %12, label %lean_dec.exit21

12:                                               ; preds = %7
  %13 = load i32, ptr %9, align 4, !tbaa !4
  %14 = icmp sgt i32 %13, 1
  br i1 %14, label %15, label %17, !prof !11

15:                                               ; preds = %12
  %16 = add nsw i32 %13, -1
  store i32 %16, ptr %9, align 4, !tbaa !4
  br label %lean_dec.exit21

17:                                               ; preds = %12
  %.not.i = icmp eq i32 %13, 0
  br i1 %.not.i, label %lean_dec.exit21, label %18

18:                                               ; preds = %17
  tail call void @lean_dec_ref_cold(ptr noundef nonnull %9) #3
  br label %lean_dec.exit21

lean_dec.exit21:                                  ; preds = %18, %17, %15, %7
  store ptr %1, ptr %8, align 8, !tbaa !9
  br label %45

19:                                               ; preds = %5
  %20 = getelementptr inbounds nuw i8, ptr %3, i64 16
  %21 = load ptr, ptr %20, align 8, !tbaa !9
  %22 = ptrtoint ptr %21 to i64
  %23 = and i64 %22, 1
  %.not = icmp eq i64 %23, 0
  br i1 %.not, label %24, label %lean_inc.exit

24:                                               ; preds = %19
  %.val.i = load i32, ptr %21, align 4, !tbaa !4
  %25 = icmp sgt i32 %.val.i, 0
  br i1 %25, label %26, label %28, !prof !11

26:                                               ; preds = %24
  %27 = add nuw i32 %.val.i, 1
  store i32 %27, ptr %21, align 4, !tbaa !4
  br label %lean_inc.exit

28:                                               ; preds = %24
  %.not.i24 = icmp eq i32 %.val.i, 0
  br i1 %.not.i24, label %lean_inc.exit, label %29

29:                                               ; preds = %28
  tail call void @lean_inc_ref_cold(ptr noundef nonnull %21) #3
  br label %lean_inc.exit

lean_inc.exit:                                    ; preds = %29, %28, %26, %19
  %30 = ptrtoint ptr %3 to i64
  %31 = and i64 %30, 1
  %.not25 = icmp eq i64 %31, 0
  br i1 %.not25, label %32, label %lean_dec.exit

32:                                               ; preds = %lean_inc.exit
  %33 = load i32, ptr %3, align 4, !tbaa !4
  %34 = icmp sgt i32 %33, 1
  br i1 %34, label %35, label %37, !prof !11

35:                                               ; preds = %32
  %36 = add nsw i32 %33, -1
  store i32 %36, ptr %3, align 4, !tbaa !4
  br label %lean_dec.exit

37:                                               ; preds = %32
  %.not.i22 = icmp eq i32 %33, 0
  br i1 %.not.i22, label %lean_dec.exit, label %38

38:                                               ; preds = %37
  tail call void @lean_dec_ref_cold(ptr noundef nonnull %3) #3
  br label %lean_dec.exit

lean_dec.exit:                                    ; preds = %38, %37, %35, %lean_inc.exit
  tail call void @lean_inc_heartbeat() #3
  %39 = tail call noalias ptr @mi_malloc_small(i64 noundef 24) #3
  %40 = icmp eq ptr %39, null
  br i1 %40, label %41, label %lean_alloc_ctor.exit

41:                                               ; preds = %lean_dec.exit
  tail call void @lean_internal_panic_out_of_memory() #4
  unreachable

lean_alloc_ctor.exit:                             ; preds = %lean_dec.exit
  %42 = getelementptr inbounds nuw i8, ptr %39, i64 4
  store i32 1, ptr %39, align 4, !tbaa !4
  store i32 131096, ptr %42, align 4
  %43 = getelementptr inbounds nuw i8, ptr %39, i64 8
  store ptr %1, ptr %43, align 8, !tbaa !9
  %44 = getelementptr inbounds nuw i8, ptr %39, i64 16
  store ptr %21, ptr %44, align 8, !tbaa !9
  br label %45

45:                                               ; preds = %lean_alloc_ctor.exit, %lean_dec.exit21
  %.sink = phi ptr [ %39, %lean_alloc_ctor.exit ], [ %3, %lean_dec.exit21 ]
  %46 = tail call ptr @lean_apply_2(ptr noundef %2, ptr noundef nonnull %.sink, ptr noundef %4) #3
  ret ptr %46
}